target datalayout = "e-m:e-p270:32:32-p271:32:32-p272:64:64-i64:64-i128:128-f80:128-n8:16:32:64-S128"
target triple = "x86_64-pc-linux-gnu"

%struct.loopargs_st = type { ptr, ptr, ptr, ptr, ptr, ptr, ptr, [16 x i8], i64, i64, i64, [7 x ptr], [7 x ptr], [7 x ptr], [7 x ptr], [2 x ptr], [2 x ptr], [22 x ptr], [22 x ptr], [24 x ptr], [2 x ptr], [2 x ptr], [1 x ptr], [1 x ptr], [1 x ptr], ptr, ptr, [24 x i64], [5 x ptr], ptr, ptr, ptr, ptr, [111 x ptr], [111 x ptr], [111 x ptr], [111 x i64], [111 x i64], [111 x ptr], [111 x ptr], [111 x ptr], [111 x ptr], [111 x ptr], [111 x ptr], [111 x i64], [111 x i64], [111 x ptr] }

; Function Attrs: nounwind uwtable
define internal i32 @mac_setup(ptr noundef %0, ptr noundef %1, ptr noundef %2, ptr noundef %3, i32 noundef %4) #0 {
  %6 = alloca i32, align 4
  %7 = alloca ptr, align 8
  %8 = alloca ptr, align 8
  %9 = alloca ptr, align 8
  %10 = alloca ptr, align 8
  %11 = alloca i32, align 4
  %12 = alloca i32, align 4
  %13 = alloca i32, align 4
  store ptr %0, ptr %7, align 8, !tbaa !39
  store ptr %1, ptr %8, align 8, !tbaa !245
  store ptr %2, ptr %9, align 8, !tbaa !13
  store ptr %3, ptr %10, align 8, !tbaa !37
  store i32 %4, ptr %11, align 4, !tbaa !4
  call void @llvm.lifetime.start.p0(i64 4, ptr %12) #11
  %14 = call ptr @app_get0_libctx()
  %15 = load ptr, ptr %7, align 8, !tbaa !39
  %16 = call ptr @app_get0_propq()
  %17 = call ptr @EVP_MAC_fetch(ptr noundef %14, ptr noundef %15, ptr noundef %16)
  %18 = load ptr, ptr %8, align 8, !tbaa !245
  store ptr %17, ptr %18, align 8, !tbaa !42
  %19 = load ptr, ptr %8, align 8, !tbaa !245
  %20 = load ptr, ptr %19, align 8, !tbaa !42
  %21 = icmp eq ptr %20, null
  br i1 %21, label %22, label %23

22:                                               ; preds = %5
  store i32 0, ptr %6, align 4
  store i32 1, ptr %13, align 4
  br label %61

23:                                               ; preds = %5
  store i32 0, ptr %12, align 4, !tbaa !4
  br label %24

24:                                               ; preds = %57, %23
  %25 = load i32, ptr %12, align 4, !tbaa !4
  %26 = load i32, ptr %11, align 4, !tbaa !4
  %27 = icmp ult i32 %25, %26
  br i1 %27, label %28, label %60

28:                                               ; preds = %24
  %29 = load ptr, ptr %8, align 8, !tbaa !245
  %30 = load ptr, ptr %29, align 8, !tbaa !42
  %31 = call ptr @EVP_MAC_CTX_new(ptr noundef %30)
  %32 = load ptr, ptr %10, align 8, !tbaa !37
  %33 = load i32, ptr %12, align 4, !tbaa !4
  %34 = zext i32 %33 to i64
  %35 = getelementptr inbounds nuw %struct.loopargs_st, ptr %32, i64 %34
  %36 = getelementptr inbounds nuw %struct.loopargs_st, ptr %35, i32 0, i32 32
  store ptr %31, ptr %36, align 8, !tbaa !136
  %37 = load ptr, ptr %10, align 8, !tbaa !37
  %38 = load i32, ptr %12, align 4, !tbaa !4
  %39 = zext i32 %38 to i64
  %40 = getelementptr inbounds nuw %struct.loopargs_st, ptr %37, i64 %39
  %41 = getelementptr inbounds nuw %struct.loopargs_st, ptr %40, i32 0, i32 32
  %42 = load ptr, ptr %41, align 8, !tbaa !136
  %43 = icmp eq ptr %42, null
  br i1 %43, label %44, label %45

44:                                               ; preds = %28
  store i32 0, ptr %6, align 4
  store i32 1, ptr %13, align 4
  br label %61

45:                                               ; preds = %28
  %46 = load ptr, ptr %10, align 8, !tbaa !37
  %47 = load i32, ptr %12, align 4, !tbaa !4
  %48 = zext i32 %47 to i64
  %49 = getelementptr inbounds nuw %struct.loopargs_st, ptr %46, i64 %48
  %50 = getelementptr inbounds nuw %struct.loopargs_st, ptr %49, i32 0, i32 32
  %51 = load ptr, ptr %50, align 8, !tbaa !136
  %52 = load ptr, ptr %9, align 8, !tbaa !13
  %53 = call i32 @EVP_MAC_CTX_set_params(ptr noundef %51, ptr noundef %52)
  %54 = icmp ne i32 %53, 0
  br i1 %54, label %56, label %55

55:                                               ; preds = %45
  store i32 0, ptr %6, align 4
  store i32 1, ptr %13, align 4
  br label %61

56:                                               ; preds = %45
  br label %57

57:                                               ; preds = %56
  %58 = load i32, ptr %12, align 4, !tbaa !4
  %59 = add i32 %58, 1
  store i32 %59, ptr %12, align 4, !tbaa !4
  br label %24, !llvm.loop !247

60:                                               ; preds = %24
  store i32 1, ptr %6, align 4
  store i32 1, ptr %13, align 4
  br label %61

61:                                               ; preds = %60, %55, %44, %22
  call void @llvm.lifetime.end.p0(i64 4, ptr %12) #11
  %62 = load i32, ptr %6, align 4
  ret i32 %62
}