; Function Attrs: nounwind uwtable
define internal fastcc range(i32 0, 2) i32 @mac_setup(ptr noundef %0, ptr noundef nonnull captures(none) initializes((0, 8)) %1, ptr noundef nonnull %2, ptr noundef writeonly captures(none) %3, i32 noundef range(i32 0, 100000) %4) unnamed_addr #0 {
  %6 = tail call ptr @app_get0_libctx() #14
  %7 = tail call ptr @app_get0_propq() #14
  %8 = tail call ptr @EVP_MAC_fetch(ptr noundef %6, ptr noundef %0, ptr noundef %7) #14
  store ptr %8, ptr %1, align 8, !tbaa !11
  %9 = icmp eq ptr %8, null
  br i1 %9, label %.loopexit, label %.preheader

.preheader:                                       ; preds = %5
  %.not21 = icmp eq i32 %4, 0
  br i1 %.not21, label %.loopexit, label %.lr.ph.preheader

.lr.ph.preheader:                                 ; preds = %.preheader
  %wide.trip.count = zext nneg i32 %4 to i64
  br label %.lr.ph

10:                                               ; preds = %15
  %indvars.iv.next = add nuw nsw i64 %indvars.iv, 1
  %exitcond.not = icmp eq i64 %indvars.iv.next, %wide.trip.count
  br i1 %exitcond.not, label %.loopexit, label %.lr.ph, !llvm.loop !196

.lr.ph:                                           ; preds = %.lr.ph.preheader, %10
  %indvars.iv = phi i64 [ 0, %.lr.ph.preheader ], [ %indvars.iv.next, %10 ]
  %11 = load ptr, ptr %1, align 8, !tbaa !11
  %12 = tail call ptr @EVP_MAC_CTX_new(ptr noundef %11) #14
  %13 = getelementptr inbounds nuw %struct.loopargs_st, ptr %3, i64 %indvars.iv, i32 32
  store ptr %12, ptr %13, align 8, !tbaa !98
  %14 = icmp eq ptr %12, null
  br i1 %14, label %.loopexit, label %15

15:                                               ; preds = %.lr.ph
  %16 = tail call i32 @EVP_MAC_CTX_set_params(ptr noundef nonnull %12, ptr noundef nonnull %2) #14
  %.not = icmp eq i32 %16, 0
  br i1 %.not, label %.loopexit, label %10

.loopexit:                                        ; preds = %.lr.ph, %15, %10, %.preheader, %5
  %.014 = phi i32 [ 0, %5 ], [ 1, %.preheader ], [ 0, %.lr.ph ], [ 0, %15 ], [ 1, %10 ]
  ret i32 %.014
}